target datalayout = "e-m:e-p270:32:32-p271:32:32-p272:64:64-i64:64-i128:128-f80:128-n8:16:32:64-S128"
target triple = "x86_64-pc-linux-gnu"

%class.LibRaw = type { ptr, %struct.libraw_data_t, ptr, %struct.libraw_internal_data_t, [2048 x %struct.decode], ptr, ptr, [10 x %struct.tiff_ifd_t], %class.libraw_memmgr, %struct.libraw_callbacks_t, { i64, i64 }, { i64, i64 }, { i64, i64 }, ptr, ptr, ptr, i64, ptr, ptr, ptr, ptr }
%struct.libraw_data_t = type { ptr, %struct.libraw_image_sizes_t, %struct.libraw_iparams_t, %struct.libraw_lensinfo_t, %struct.libraw_makernotes_t, %struct.libraw_shootinginfo_t, %struct.libraw_output_params_t, %struct.libraw_raw_unpack_params_t, i32, i32, %struct.libraw_colordata_t, %struct.libraw_imgother_t, %struct.libraw_thumbnail_t, %struct.libraw_thumbnail_list_t, %struct.libraw_rawdata_t, ptr }
%struct.libraw_image_sizes_t = type { i16, i16, i16, i16, i16, i16, i16, i16, i32, double, i32, [8 x [4 x i32]], i16, [2 x %struct.libraw_raw_inset_crop_t] }
%struct.libraw_raw_inset_crop_t = type { i16, i16, i16, i16 }
%struct.libraw_iparams_t = type { [4 x i8], [64 x i8], [64 x i8], [64 x i8], [64 x i8], [64 x i8], i32, i32, i32, i32, i32, i32, [6 x [6 x i8]], [6 x [6 x i8]], [5 x i8], i32, ptr }
%struct.libraw_lensinfo_t = type { float, float, float, float, float, [128 x i8], [128 x i8], [128 x i8], [128 x i8], i16, %struct.libraw_nikonlens_t, %struct.libraw_dnglens_t, %struct.libraw_makernotes_lens_t }
%struct.libraw_nikonlens_t = type { float, i8, i8, i8, i8 }
%struct.libraw_dnglens_t = type { float, float, float, float }
%struct.libraw_makernotes_lens_t = type { i64, [128 x i8], i16, i16, i64, i16, i16, [64 x i8], i16, [16 x i8], [16 x i8], float, float, float, float, float, float, float, float, float, float, float, float, float, float, float, i64, [128 x i8], i64, [128 x i8], i64, [128 x i8], i16, float }
%struct.libraw_makernotes_t = type { %struct.libraw_canon_makernotes_t, %struct.libraw_nikon_makernotes_t, %struct.libraw_hasselblad_makernotes_t, %struct.libraw_fuji_info_t, %struct.libraw_olympus_makernotes_t, %struct.libraw_sony_info_t, %struct.libraw_kodak_makernotes_t, %struct.libraw_panasonic_makernotes_t, %struct.libraw_pentax_makernotes_t, %struct.libraw_p1_makernotes_t, %struct.libraw_ricoh_makernotes_t, %struct.libraw_samsung_makernotes_t, %struct.libraw_metadata_common_t }
%struct.libraw_canon_makernotes_t = type { i32, i32, i32, i32, [4 x i32], i32, [4 x i32], i16, i16, i8, i16, i16, i16, i16, i16, i16, i16, i16, i16, i16, i16, i16, i16, i32, float, i16, i16, i16, i32, i16, i32, i32, i16, i32, %struct.libraw_area_t, %struct.libraw_area_t, %struct.libraw_area_t, %struct.libraw_area_t, %struct.libraw_area_t, [2 x i16] }
%struct.libraw_area_t = type { i16, i16, i16, i16 }
%struct.libraw_nikon_makernotes_t = type { double, i16, i16, [7 x i8], i8, i8, [13 x i8], [20 x i8], [4 x i8], [4 x i8], [4 x i8], i8, i8, i8, i8, i8, [2 x i8], i8, i8, i8, i8, i8, [4 x i8], [4 x i8], i8, i16, i32, i32, i32, i32, [4 x double], i8, i8, i8, i32, i32, i32, i8, [4 x i16], i16, %struct.libraw_sensor_highspeed_crop_t, i16, i16, i16, i32, [20 x i8], [20 x i8], i32, i16, double, double, double }
%struct.libraw_sensor_highspeed_crop_t = type { i16, i16, i16, i16 }
%struct.libraw_hasselblad_makernotes_t = type { i32, double, [8 x i8], [64 x i8], [64 x i8], i32, i32, i32, i32, [32 x i8], [64 x i8], i32, [2 x i32], [2 x i32], [4 x [3 x double]] }
%struct.libraw_fuji_info_t = type { float, i16, i16, i16, i16, i16, i16, i16, i16, [33 x i8], [33 x i8], float, i16, i16, [2 x i16], i16, i32, i32, i16, [3 x i16], i16, i16, i16, i16, i16, i32, i16, [13 x i8], [5 x i8], [5 x i8], i32, i16, i32, i16, [9 x i16], [32 x i32], i32, i32, i32, [2 x float], i32 }
%struct.libraw_olympus_makernotes_t = type { [6 x i8], i16, [2 x i32], [5 x i16], i16, [2 x i16], i16, i16, [64 x i32], [5 x double], i16, i8, [3 x i16], [3 x i32], i16, i16, i16, i16, double, [4 x i16], [2 x i32], i8, i32, i16, i16 }
%struct.libraw_sony_info_t = type { i16, i8, i8, i32, i8, i32, i8, i8, i16, [2 x i16], i8, i8, i16, [10 x i8], i8, i8, [4 x i16], i16, i8, i8, i8, i16, i32, i16, [2 x i16], i16, i16, i16, i16, i16, i16, i16, i32, float, i16, i32, i32, i16, [20 x i8], i32, i16, i32, i8, i8, i16, i16, i16, i16, i16, i16, i16, i16, i16, i32, i16, [16 x i8], float }
%struct.libraw_kodak_makernotes_t = type { i16, i16, i16, i16, i16, i16, [3 x [3 x float]], [3 x [3 x float]], [3 x [3 x float]], [3 x [3 x float]], [3 x [3 x float]], [3 x [3 x float]], i16, i16, i16, i16, float, float }
%struct.libraw_panasonic_makernotes_t = type { i16, i16, [8 x float], i32, float, [3 x i32], i16, i16, i32, i32 }
%struct.libraw_pentax_makernotes_t = type { [4 x i8], [2 x i16], [2 x i16], i16, i32, i32, i16, i16, i8, i8, i16 }
%struct.libraw_p1_makernotes_t = type { [64 x i8], [64 x i8], [256 x i8], [64 x i8] }
%struct.libraw_ricoh_makernotes_t = type { i16, [2 x i32], [2 x i32], i16, i32, i32, i32, i32, i16, i16, i16, i16, i16, i16, double, double }
%struct.libraw_samsung_makernotes_t = type { [4 x i32], [4 x i32], [2 x i32], [11 x i32], double, i32, [32 x i8] }
%struct.libraw_metadata_common_t = type { float, float, float, float, float, float, float, float, float, float, float, float, float, float, float, float, i16, [128 x i8], float, [4 x %struct.libraw_afinfo_item_t], i32 }
%struct.libraw_afinfo_item_t = type { i32, i16, i32, i32, ptr }
%struct.libraw_shootinginfo_t = type { i16, i16, i16, i16, i16, i16, i16, [64 x i8], [64 x i8] }
%struct.libraw_output_params_t = type { [4 x i32], [4 x i32], [4 x double], [6 x double], [4 x float], float, float, i32, i32, i32, i32, i32, i32, i32, ptr, ptr, ptr, ptr, i32, i32, i32, i32, i32, i32, [4 x i32], i32, i32, float, float, i32, i32, i32, i32, i32, i32, i32, i32, float, float, i32, i32 }
%struct.libraw_raw_unpack_params_t = type { i32, i32, i32, i32, i32, i32, i32, float, [5 x i8], ptr }
%struct.libraw_colordata_t = type { [65536 x i16], [4104 x i32], i32, i32, i32, [4 x i64], float, float, [8 x [8 x i16]], [4 x float], [4 x float], [3 x [4 x float]], [3 x [4 x float]], [3 x [4 x float]], [4 x [3 x float]], %struct.ph1_t, float, float, [64 x i8], [64 x i8], [64 x i8], [64 x i8], [17 x i8], [64 x i8], ptr, i32, [8 x i32], [2 x %struct.libraw_dng_color_t], %struct.libraw_dng_levels_t, [256 x [4 x i32]], [64 x [5 x float]], i32, [2 x %struct.libraw_P1_color_t], i32, i32 }
%struct.ph1_t = type { i32, i32, i32, i32, i32, i32, i32, i32, float }
%struct.libraw_dng_color_t = type { i32, i16, [4 x [4 x float]], [4 x [3 x float]], [3 x [4 x float]] }
%struct.libraw_dng_levels_t = type { i32, [4104 x i32], i32, [4104 x float], float, [4 x i32], [4 x i16], [4 x float], i32, [4 x float], [4 x float], float, float }
%struct.libraw_P1_color_t = type { [9 x float] }
%struct.libraw_imgother_t = type { float, float, float, float, i64, i32, [32 x i32], %struct.libraw_gps_info_t, [512 x i8], [64 x i8], [4 x float] }
%struct.libraw_gps_info_t = type { [3 x float], [3 x float], [3 x float], float, i8, i8, i8, i8, i8 }
%struct.libraw_thumbnail_t = type { i32, i16, i16, i32, i32, ptr }
%struct.libraw_thumbnail_list_t = type { i32, [8 x %struct.libraw_thumbnail_item_t] }
%struct.libraw_thumbnail_item_t = type { i32, i16, i16, i16, i32, i32, i64 }
%struct.libraw_rawdata_t = type { ptr, ptr, ptr, ptr, ptr, ptr, ptr, ptr, ptr, %struct.libraw_iparams_t, %struct.libraw_image_sizes_t, %struct.libraw_internal_output_params_t, %struct.libraw_colordata_t }
%struct.libraw_internal_output_params_t = type { i32, i32, i32, i16, i16 }
%struct.libraw_internal_data_t = type { %struct.internal_data_t, %struct.libraw_internal_output_params_t, %struct.output_data_t, %struct.identify_data_t, %struct.unpacker_data_t }
%struct.internal_data_t = type { ptr, ptr, i32, ptr, i64, i64, [4 x i32] }
%struct.output_data_t = type { ptr, ptr }
%struct.identify_data_t = type { i32, i64, i64, i32, i32, i32 }
%struct.unpacker_data_t = type { i16, [4 x i16], [3 x i16], i32, i64, i64, i64, i64, i64, i64, i32, i32, i32, i32, i32, i32, i32, i32, i32, i32, i32, i32, i32, i32, i32, i32, i32, i64, i32, i32, i32, i32, i32, i32, i32, i32, i32, %struct.pana8_tags_t, [16 x %struct.crx_data_header_t], i32, i32, i16, i16, i32, i32, i32, i32, i32, i32, i32, [20 x i32], i16 }
%struct.pana8_tags_t = type { [6 x i32], [6 x i16], i16, [4 x i16], [17 x i16], [17 x i16], [17 x i16], i16, i16, [5 x i64], [5 x i16], [5 x i32], [5 x i16], [5 x i16] }
%struct.crx_data_header_t = type { i32, i32, i32, i32, i32, i32, i32, i32, i32, i32, i32, i32, i32, i32, i32, i64, i32, ptr, i32, i32, i32, ptr, i32, ptr }
%struct.decode = type { [2 x ptr], i32 }
%struct.tiff_ifd_t = type { i32, i32, i32, i32, i32, i32, i32, i32, i32, i32, i32, i32, i32, i32, i32, ptr, i32, ptr, i32, i32, i32, i32, i32, i32, i32, float, i64, i64, i32, [2 x %struct.libraw_dng_color_t], %struct.libraw_dng_levels_t, i32 }
%class.libraw_memmgr = type <{ ptr, i32, [4 x i8] }>
%struct.libraw_callbacks_t = type { ptr, ptr, ptr, ptr, ptr, ptr, ptr, ptr, ptr, ptr, ptr, ptr, ptr, ptr, ptr, ptr, ptr }

@.str.2 = private unnamed_addr constant [5 x i8] c"moov\00", align 1
@.str.3 = private unnamed_addr constant [5 x i8] c"udta\00", align 1
@.str.4 = private unnamed_addr constant [5 x i8] c"CNTH\00", align 1
@.str.5 = private unnamed_addr constant [5 x i8] c"CNDA\00", align 1

; Function Attrs: mustprogress uwtable
define void @_ZN6LibRaw8parse_qtEi(ptr noundef nonnull align 8 dereferenceable(767680) %0, i32 noundef %1) #0 align 2 {
  %3 = alloca ptr, align 8
  %4 = alloca i32, align 4
  %5 = alloca i32, align 4
  %6 = alloca i32, align 4
  %7 = alloca [4 x i8], align 1
  %8 = alloca i32, align 4
  store ptr %0, ptr %3, align 8, !tbaa !6
  store i32 %1, ptr %4, align 4, !tbaa !75
  %9 = load ptr, ptr %3, align 8
  call void @llvm.lifetime.start.p0(i64 4, ptr %5) #10
  call void @llvm.lifetime.start.p0(i64 4, ptr %6) #10
  call void @llvm.lifetime.start.p0(i64 4, ptr %7) #10
  %10 = getelementptr inbounds nuw %class.LibRaw, ptr %9, i32 0, i32 3
  %11 = getelementptr inbounds nuw %struct.libraw_internal_data_t, ptr %10, i32 0, i32 4
  %12 = getelementptr inbounds nuw %struct.unpacker_data_t, ptr %11, i32 0, i32 0
  store i16 19789, ptr %12, align 8, !tbaa !86
  br label %13

13:                                               ; preds = %90, %2
  %14 = getelementptr inbounds nuw %class.LibRaw, ptr %9, i32 0, i32 3
  %15 = getelementptr inbounds nuw %struct.libraw_internal_data_t, ptr %14, i32 0, i32 0
  %16 = getelementptr inbounds nuw %struct.internal_data_t, ptr %15, i32 0, i32 0
  %17 = load ptr, ptr %16, align 8, !tbaa !11
  %18 = load ptr, ptr %17, align 8, !tbaa !73
  %19 = getelementptr inbounds ptr, ptr %18, i64 5
  %20 = load ptr, ptr %19, align 8
  %21 = call noundef i64 %20(ptr noundef nonnull align 8 dereferenceable(8) %17)
  %22 = add nsw i64 %21, 7
  %23 = load i32, ptr %4, align 4, !tbaa !75
  %24 = sext i32 %23 to i64
  %25 = icmp slt i64 %22, %24
  br i1 %25, label %26, label %103

26:                                               ; preds = %13
  %27 = getelementptr inbounds nuw %class.LibRaw, ptr %9, i32 0, i32 3
  %28 = getelementptr inbounds nuw %struct.libraw_internal_data_t, ptr %27, i32 0, i32 0
  %29 = getelementptr inbounds nuw %struct.internal_data_t, ptr %28, i32 0, i32 0
  %30 = load ptr, ptr %29, align 8, !tbaa !11
  %31 = load ptr, ptr %30, align 8, !tbaa !73
  %32 = getelementptr inbounds ptr, ptr %31, i64 5
  %33 = load ptr, ptr %32, align 8
  %34 = call noundef i64 %33(ptr noundef nonnull align 8 dereferenceable(8) %30)
  %35 = trunc i64 %34 to i32
  store i32 %35, ptr %5, align 4, !tbaa !75
  %36 = call noundef i32 @_ZN6LibRaw4get4Ev(ptr noundef nonnull align 8 dereferenceable(767680) %9)
  store i32 %36, ptr %6, align 4, !tbaa !75
  %37 = icmp ult i32 %36, 8
  br i1 %37, label %38, label %39

38:                                               ; preds = %26
  store i32 1, ptr %8, align 4
  br label %104

39:                                               ; preds = %26
  %40 = load i32, ptr %6, align 4, !tbaa !75
  %41 = icmp slt i32 %40, 0
  br i1 %41, label %42, label %43

42:                                               ; preds = %39
  store i32 1, ptr %8, align 4
  br label %104

43:                                               ; preds = %39
  %44 = load i32, ptr %5, align 4, !tbaa !75
  %45 = load i32, ptr %6, align 4, !tbaa !75
  %46 = add i32 %44, %45
  %47 = load i32, ptr %5, align 4, !tbaa !75
  %48 = icmp ult i32 %46, %47
  br i1 %48, label %49, label %50

49:                                               ; preds = %43
  store i32 1, ptr %8, align 4
  br label %104

50:                                               ; preds = %43
  %51 = getelementptr inbounds nuw %class.LibRaw, ptr %9, i32 0, i32 3
  %52 = getelementptr inbounds nuw %struct.libraw_internal_data_t, ptr %51, i32 0, i32 0
  %53 = getelementptr inbounds nuw %struct.internal_data_t, ptr %52, i32 0, i32 0
  %54 = load ptr, ptr %53, align 8, !tbaa !11
  %55 = getelementptr inbounds [4 x i8], ptr %7, i64 0, i64 0
  %56 = load ptr, ptr %54, align 8, !tbaa !73
  %57 = getelementptr inbounds ptr, ptr %56, i64 3
  %58 = load ptr, ptr %57, align 8
  %59 = call noundef i32 %58(ptr noundef nonnull align 8 dereferenceable(8) %54, ptr noundef %55, i64 noundef 4, i64 noundef 1)
  %60 = getelementptr inbounds [4 x i8], ptr %7, i64 0, i64 0
  %61 = call i32 @memcmp(ptr noundef %60, ptr noundef @.str.2, i64 noundef 4) #11
  %62 = icmp ne i32 %61, 0
  br i1 %62, label %63, label %71

63:                                               ; preds = %50
  %64 = getelementptr inbounds [4 x i8], ptr %7, i64 0, i64 0
  %65 = call i32 @memcmp(ptr noundef %64, ptr noundef @.str.3, i64 noundef 4) #11
  %66 = icmp ne i32 %65, 0
  br i1 %66, label %67, label %71

67:                                               ; preds = %63
  %68 = getelementptr inbounds [4 x i8], ptr %7, i64 0, i64 0
  %69 = call i32 @memcmp(ptr noundef %68, ptr noundef @.str.4, i64 noundef 4) #11
  %70 = icmp ne i32 %69, 0
  br i1 %70, label %75, label %71

71:                                               ; preds = %67, %63, %50
  %72 = load i32, ptr %5, align 4, !tbaa !75
  %73 = load i32, ptr %6, align 4, !tbaa !75
  %74 = add i32 %72, %73
  call void @_ZN6LibRaw8parse_qtEi(ptr noundef nonnull align 8 dereferenceable(767680) %9, i32 noundef %74)
  br label %75

75:                                               ; preds = %71, %67
  %76 = getelementptr inbounds [4 x i8], ptr %7, i64 0, i64 0
  %77 = call i32 @memcmp(ptr noundef %76, ptr noundef @.str.5, i64 noundef 4) #11
  %78 = icmp ne i32 %77, 0
  br i1 %78, label %90, label %79

79:                                               ; preds = %75
  %80 = getelementptr inbounds nuw %class.LibRaw, ptr %9, i32 0, i32 3
  %81 = getelementptr inbounds nuw %struct.libraw_internal_data_t, ptr %80, i32 0, i32 0
  %82 = getelementptr inbounds nuw %struct.internal_data_t, ptr %81, i32 0, i32 0
  %83 = load ptr, ptr %82, align 8, !tbaa !11
  %84 = load ptr, ptr %83, align 8, !tbaa !73
  %85 = getelementptr inbounds ptr, ptr %84, i64 5
  %86 = load ptr, ptr %85, align 8
  %87 = call noundef i64 %86(ptr noundef nonnull align 8 dereferenceable(8) %83)
  %88 = trunc i64 %87 to i32
  %89 = call noundef i32 @_ZN6LibRaw10parse_jpegEi(ptr noundef nonnull align 8 dereferenceable(767680) %9, i32 noundef %88)
  br label %90

90:                                               ; preds = %79, %75
  %91 = getelementptr inbounds nuw %class.LibRaw, ptr %9, i32 0, i32 3
  %92 = getelementptr inbounds nuw %struct.libraw_internal_data_t, ptr %91, i32 0, i32 0
  %93 = getelementptr inbounds nuw %struct.internal_data_t, ptr %92, i32 0, i32 0
  %94 = load ptr, ptr %93, align 8, !tbaa !11
  %95 = load i32, ptr %5, align 4, !tbaa !75
  %96 = load i32, ptr %6, align 4, !tbaa !75
  %97 = add i32 %95, %96
  %98 = zext i32 %97 to i64
  %99 = load ptr, ptr %94, align 8, !tbaa !73
  %100 = getelementptr inbounds ptr, ptr %99, i64 4
  %101 = load ptr, ptr %100, align 8
  %102 = call noundef i32 %101(ptr noundef nonnull align 8 dereferenceable(8) %94, i64 noundef %98, i32 noundef 0)
  br label %13, !llvm.loop !99

103:                                              ; preds = %13
  store i32 0, ptr %8, align 4
  br label %104

104:                                              ; preds = %103, %49, %42, %38
  call void @llvm.lifetime.end.p0(i64 4, ptr %7) #10
  call void @llvm.lifetime.end.p0(i64 4, ptr %6) #10
  call void @llvm.lifetime.end.p0(i64 4, ptr %5) #10
  %105 = load i32, ptr %8, align 4
  switch i32 %105, label %107 [
    i32 0, label %106
    i32 1, label %106
  ]

106:                                              ; preds = %104, %104
  ret void

107:                                              ; preds = %104
  unreachable
}