; Function Attrs: mustprogress uwtable
define void @_ZN6LibRaw8parse_qtEi(ptr noundef nonnull align 8 dereferenceable(767680) initializes((381552, 381554)) %0, i32 noundef %1) local_unnamed_addr #0 align 2 {
  %3 = alloca [4 x i8], align 1
  call void @llvm.lifetime.start.p0(i64 4, ptr nonnull %3) #13
  %4 = getelementptr inbounds nuw i8, ptr %0, i64 381416
  %5 = getelementptr inbounds nuw i8, ptr %0, i64 381552
  store i16 19789, ptr %5, align 8, !tbaa !83
  %6 = load ptr, ptr %4, align 8, !tbaa !6
  %7 = load ptr, ptr %6, align 8, !tbaa !71
  %8 = getelementptr inbounds nuw i8, ptr %7, i64 40
  %9 = load ptr, ptr %8, align 8
  %10 = tail call noundef i64 %9(ptr noundef nonnull align 8 dereferenceable(8) %6)
  %11 = add nsw i64 %10, 7
  %12 = sext i32 %1 to i64
  %13 = icmp slt i64 %11, %12
  br i1 %13, label %.lr.ph, label %._crit_edge

.lr.ph:                                           ; preds = %2
  %invariant.op = add nsw i64 %12, -7
  br label %14

14:                                               ; preds = %.lr.ph, %43
  %15 = load ptr, ptr %4, align 8, !tbaa !6
  %16 = load ptr, ptr %15, align 8, !tbaa !71
  %17 = getelementptr inbounds nuw i8, ptr %16, i64 40
  %18 = load ptr, ptr %17, align 8
  %19 = call noundef i64 %18(ptr noundef nonnull align 8 dereferenceable(8) %15)
  %20 = call noundef i32 @_ZN6LibRaw4get4Ev(ptr noundef nonnull align 8 dereferenceable(767680) %0)
  %or.cond = icmp slt i32 %20, 8
  br i1 %or.cond, label %._crit_edge, label %21

21:                                               ; preds = %14
  %22 = trunc i64 %19 to i32
  %23 = add i32 %20, %22
  %24 = icmp ult i32 %23, %22
  br i1 %24, label %._crit_edge, label %25

25:                                               ; preds = %21
  %26 = load ptr, ptr %4, align 8, !tbaa !6
  %27 = load ptr, ptr %26, align 8, !tbaa !71
  %28 = getelementptr inbounds nuw i8, ptr %27, i64 24
  %29 = load ptr, ptr %28, align 8
  %30 = call noundef i32 %29(ptr noundef nonnull align 8 dereferenceable(8) %26, ptr noundef nonnull %3, i64 noundef 4, i64 noundef 1)
  %bcmp = call i32 @bcmp(ptr noundef nonnull dereferenceable(4) %3, ptr noundef nonnull dereferenceable(4) @.str.2, i64 4)
  %.not = icmp eq i32 %bcmp, 0
  br i1 %.not, label %33, label %31

31:                                               ; preds = %25
  %bcmp10 = call i32 @bcmp(ptr noundef nonnull dereferenceable(4) %3, ptr noundef nonnull dereferenceable(4) @.str.3, i64 4)
  %.not11 = icmp eq i32 %bcmp10, 0
  br i1 %.not11, label %33, label %32

32:                                               ; preds = %31
  %bcmp12 = call i32 @bcmp(ptr noundef nonnull dereferenceable(4) %3, ptr noundef nonnull dereferenceable(4) @.str.4, i64 4)
  %.not13 = icmp eq i32 %bcmp12, 0
  br i1 %.not13, label %33, label %34

33:                                               ; preds = %32, %31, %25
  call void @_ZN6LibRaw8parse_qtEi(ptr noundef nonnull align 8 dereferenceable(767680) %0, i32 noundef %23)
  br label %34

34:                                               ; preds = %33, %32
  %bcmp14 = call i32 @bcmp(ptr noundef nonnull dereferenceable(4) %3, ptr noundef nonnull dereferenceable(4) @.str.5, i64 4)
  %.not15 = icmp eq i32 %bcmp14, 0
  br i1 %.not15, label %35, label %43

35:                                               ; preds = %34
  %36 = load ptr, ptr %4, align 8, !tbaa !6
  %37 = load ptr, ptr %36, align 8, !tbaa !71
  %38 = getelementptr inbounds nuw i8, ptr %37, i64 40
  %39 = load ptr, ptr %38, align 8
  %40 = call noundef i64 %39(ptr noundef nonnull align 8 dereferenceable(8) %36)
  %41 = trunc i64 %40 to i32
  %42 = call noundef i32 @_ZN6LibRaw10parse_jpegEi(ptr noundef nonnull align 8 dereferenceable(767680) %0, i32 noundef %41)
  br label %43

43:                                               ; preds = %35, %34
  %44 = load ptr, ptr %4, align 8, !tbaa !6
  %45 = zext i32 %23 to i64
  %46 = load ptr, ptr %44, align 8, !tbaa !71
  %47 = getelementptr inbounds nuw i8, ptr %46, i64 32
  %48 = load ptr, ptr %47, align 8
  %49 = call noundef i32 %48(ptr noundef nonnull align 8 dereferenceable(8) %44, i64 noundef %45, i32 noundef 0)
  %50 = load ptr, ptr %4, align 8, !tbaa !6
  %51 = load ptr, ptr %50, align 8, !tbaa !71
  %52 = getelementptr inbounds nuw i8, ptr %51, i64 40
  %53 = load ptr, ptr %52, align 8
  %54 = call noundef i64 %53(ptr noundef nonnull align 8 dereferenceable(8) %50)
  %55 = icmp slt i64 %54, %invariant.op
  br i1 %55, label %14, label %._crit_edge, !llvm.loop !96

._crit_edge:                                      ; preds = %14, %21, %43, %2
  call void @llvm.lifetime.end.p0(i64 4, ptr nonnull %3) #13
  ret void
}